; Function Attrs: nounwind uwtable
define internal range(i32 -1, 2) i32 @CVSpbcgSolve(ptr noundef %0, ptr noundef %1, ptr noundef %2, ptr noundef %3, ptr noundef %4) #0 {
  %6 = alloca double, align 8
  %7 = alloca i32, align 4
  %8 = alloca i32, align 4
  call void @llvm.lifetime.start.p0(i64 8, ptr nonnull %6) #7
  call void @llvm.lifetime.start.p0(i64 4, ptr nonnull %7) #7
  call void @llvm.lifetime.start.p0(i64 4, ptr nonnull %8) #7
  %9 = getelementptr inbounds nuw i8, ptr %0, i64 1696
  %10 = load ptr, ptr %9, align 8, !tbaa !41
  %11 = getelementptr inbounds nuw i8, ptr %10, i64 144
  %12 = load ptr, ptr %11, align 8, !tbaa !40
  %13 = getelementptr inbounds nuw i8, ptr %10, i64 24
  %14 = load double, ptr %13, align 8, !tbaa !34
  %15 = getelementptr inbounds nuw i8, ptr %0, i64 1144
  %16 = load double, ptr %15, align 8, !tbaa !55
  %17 = fmul double %14, %16
  %18 = getelementptr inbounds nuw i8, ptr %10, i64 32
  store double %17, ptr %18, align 8, !tbaa !56
  %19 = tail call double @N_VWrmsNorm(ptr noundef %1, ptr noundef %2) #7
  %20 = load double, ptr %18, align 8, !tbaa !56
  %21 = fcmp ugt double %19, %20
  br i1 %21, label %27, label %22

22:                                               ; preds = %5
  %23 = getelementptr inbounds nuw i8, ptr %0, i64 1352
  %24 = load i32, ptr %23, align 8, !tbaa !57
  %25 = icmp sgt i32 %24, 0
  br i1 %25, label %26, label %67

26:                                               ; preds = %22
  tail call void @N_VConst(double noundef 0.000000e+00, ptr noundef %1) #7
  br label %67

27:                                               ; preds = %5
  %28 = getelementptr inbounds nuw i8, ptr %10, i64 128
  store ptr %3, ptr %28, align 8, !tbaa !58
  %29 = getelementptr inbounds nuw i8, ptr %10, i64 136
  store ptr %4, ptr %29, align 8, !tbaa !59
  %30 = getelementptr inbounds nuw i8, ptr %10, i64 16
  %31 = load double, ptr %30, align 8, !tbaa !39
  %32 = fmul double %20, %31
  %33 = getelementptr inbounds nuw i8, ptr %10, i64 40
  store double %32, ptr %33, align 8, !tbaa !60
  %34 = getelementptr inbounds nuw i8, ptr %10, i64 120
  %35 = load ptr, ptr %34, align 8, !tbaa !38
  tail call void @N_VConst(double noundef 0.000000e+00, ptr noundef %35) #7
  %36 = load ptr, ptr %34, align 8, !tbaa !38
  %37 = getelementptr inbounds nuw i8, ptr %10, i64 4
  %38 = load i32, ptr %37, align 4, !tbaa !29
  %39 = load double, ptr %33, align 8, !tbaa !60
  %40 = call i32 @SpbcgSolve(ptr noundef %12, ptr noundef nonnull %0, ptr noundef %36, ptr noundef %1, i32 noundef %38, double noundef %39, ptr noundef nonnull %0, ptr noundef %2, ptr noundef %2, ptr noundef nonnull @CVSpilsAtimes, ptr noundef nonnull @CVSpilsPSolve, ptr noundef nonnull %6, ptr noundef nonnull %7, ptr noundef nonnull %8) #7
  %41 = load ptr, ptr %34, align 8, !tbaa !38
  call void @N_VScale(double noundef 1.000000e+00, ptr noundef %41, ptr noundef %1) #7
  %42 = load i32, ptr %7, align 4, !tbaa !52
  %43 = sext i32 %42 to i64
  %44 = getelementptr inbounds nuw i8, ptr %10, i64 72
  %45 = load i64, ptr %44, align 8, !tbaa !61
  %46 = add nsw i64 %45, %43
  store i64 %46, ptr %44, align 8, !tbaa !61
  %47 = load i32, ptr %8, align 4, !tbaa !52
  %48 = sext i32 %47 to i64
  %49 = getelementptr inbounds nuw i8, ptr %10, i64 80
  %50 = load i64, ptr %49, align 8, !tbaa !62
  %51 = add nsw i64 %50, %48
  store i64 %51, ptr %49, align 8, !tbaa !62
  %.not = icmp eq i32 %40, 0
  br i1 %.not, label %.thread, label %53

.thread:                                          ; preds = %27
  %52 = getelementptr inbounds nuw i8, ptr %10, i64 208
  store i64 0, ptr %52, align 8, !tbaa !35
  br label %66

53:                                               ; preds = %27
  %54 = getelementptr inbounds nuw i8, ptr %10, i64 88
  %55 = load i64, ptr %54, align 8, !tbaa !63
  %56 = add nsw i64 %55, 1
  store i64 %56, ptr %54, align 8, !tbaa !63
  %57 = sext i32 %40 to i64
  %58 = getelementptr inbounds nuw i8, ptr %10, i64 208
  store i64 %57, ptr %58, align 8, !tbaa !35
  switch i32 %40, label %66 [
    i32 -3, label %65
    i32 1, label %59
    i32 2, label %67
    i32 3, label %67
    i32 4, label %67
    i32 -1, label %63
    i32 -2, label %64
  ]

59:                                               ; preds = %53
  %60 = getelementptr inbounds nuw i8, ptr %0, i64 1352
  %61 = load i32, ptr %60, align 8, !tbaa !57
  %62 = icmp ne i32 %61, 0
  %. = zext i1 %62 to i32
  br label %67

63:                                               ; preds = %53
  br label %67

64:                                               ; preds = %53
  call void (ptr, i32, ptr, ptr, ptr, ...) @cvProcessError(ptr noundef nonnull %0, i32 noundef -2, ptr noundef nonnull @.str, ptr noundef nonnull @.str.13, ptr noundef nonnull @.str.14) #7
  br label %67

65:                                               ; preds = %53
  call void (ptr, i32, ptr, ptr, ptr, ...) @cvProcessError(ptr noundef nonnull %0, i32 noundef -3, ptr noundef nonnull @.str, ptr noundef nonnull @.str.13, ptr noundef nonnull @.str.15) #7
  br label %67

66:                                               ; preds = %.thread, %53
  br label %67

67:                                               ; preds = %53, %53, %53, %59, %22, %26, %66, %65, %64, %63
  %.0 = phi i32 [ 0, %66 ], [ -1, %65 ], [ -1, %64 ], [ -1, %63 ], [ 0, %26 ], [ 0, %22 ], [ %., %59 ], [ 1, %53 ], [ 1, %53 ], [ 1, %53 ]
  call void @llvm.lifetime.end.p0(i64 4, ptr nonnull %8) #7
  call void @llvm.lifetime.end.p0(i64 4, ptr nonnull %7) #7
  call void @llvm.lifetime.end.p0(i64 8, ptr nonnull %6) #7
  ret i32 %.0
}